target datalayout = "e-m:e-p270:32:32-p271:32:32-p272:64:64-i64:64-i128:128-f80:128-n8:16:32:64-S128"
target triple = "x86_64-pc-linux-gnu"

%struct.VP8TBuffer = type { ptr, ptr, ptr, i32, i32, i32 }
%struct.VP8Tokens = type { ptr }

@VP8EntropyCost = external constant [256 x i16], align 16

; Function Attrs: inlinehint nounwind uwtable
define internal i32 @VP8BitCost(i32 noundef %0, i8 noundef zeroext %1) #3 {
  %3 = alloca i32, align 4
  %4 = alloca i8, align 1
  store i32 %0, ptr %3, align 4, !tbaa !7
  store i8 %1, ptr %4, align 1, !tbaa !39
  %5 = load i32, ptr %3, align 4, !tbaa !7
  %6 = icmp ne i32 %5, 0
  br i1 %6, label %13, label %7

7:                                                ; preds = %2
  %8 = load i8, ptr %4, align 1, !tbaa !39
  %9 = zext i8 %8 to i64
  %10 = getelementptr inbounds nuw [256 x i16], ptr @VP8EntropyCost, i64 0, i64 %9
  %11 = load i16, ptr %10, align 2, !tbaa !37
  %12 = zext i16 %11 to i32
  br label %21

13:                                               ; preds = %2
  %14 = load i8, ptr %4, align 1, !tbaa !39
  %15 = zext i8 %14 to i32
  %16 = sub nsw i32 255, %15
  %17 = sext i32 %16 to i64
  %18 = getelementptr inbounds [256 x i16], ptr @VP8EntropyCost, i64 0, i64 %17
  %19 = load i16, ptr %18, align 2, !tbaa !37
  %20 = zext i16 %19 to i32
  br label %21

21:                                               ; preds = %13, %7
  %22 = phi i32 [ %12, %7 ], [ %20, %13 ]
  ret i32 %22
}

; Function Attrs: nounwind uwtable
define hidden i64 @VP8EstimateTokenSize(ptr noundef %0, ptr noundef %1) #0 {
  %3 = alloca ptr, align 8
  %4 = alloca ptr, align 8
  %5 = alloca i64, align 8
  %6 = alloca ptr, align 8
  %7 = alloca ptr, align 8
  %8 = alloca i32, align 4
  %9 = alloca i32, align 4
  %10 = alloca ptr, align 8
  %11 = alloca i16, align 2
  %12 = alloca i32, align 4
  store ptr %0, ptr %3, align 8, !tbaa !3
  store ptr %1, ptr %4, align 8, !tbaa !41
  call void @llvm.lifetime.start.p0(i64 8, ptr %5) #4
  store i64 0, ptr %5, align 8, !tbaa !47
  call void @llvm.lifetime.start.p0(i64 8, ptr %6) #4
  %13 = load ptr, ptr %3, align 8, !tbaa !3
  %14 = getelementptr inbounds nuw %struct.VP8TBuffer, ptr %13, i32 0, i32 0
  %15 = load ptr, ptr %14, align 8, !tbaa !14
  store ptr %15, ptr %6, align 8, !tbaa !19
  br label %16

16:                                               ; preds = %79, %2
  %17 = load ptr, ptr %6, align 8, !tbaa !19
  %18 = icmp ne ptr %17, null
  br i1 %18, label %19, label %81

19:                                               ; preds = %16
  call void @llvm.lifetime.start.p0(i64 8, ptr %7) #4
  %20 = load ptr, ptr %6, align 8, !tbaa !19
  %21 = getelementptr inbounds nuw %struct.VP8Tokens, ptr %20, i32 0, i32 0
  %22 = load ptr, ptr %21, align 8, !tbaa !20
  store ptr %22, ptr %7, align 8, !tbaa !19
  call void @llvm.lifetime.start.p0(i64 4, ptr %8) #4
  %23 = load ptr, ptr %7, align 8, !tbaa !19
  %24 = icmp eq ptr %23, null
  br i1 %24, label %25, label %29

25:                                               ; preds = %19
  %26 = load ptr, ptr %3, align 8, !tbaa !3
  %27 = getelementptr inbounds nuw %struct.VP8TBuffer, ptr %26, i32 0, i32 3
  %28 = load i32, ptr %27, align 8, !tbaa !16
  br label %30

29:                                               ; preds = %19
  br label %30

30:                                               ; preds = %29, %25
  %31 = phi i32 [ %28, %25 ], [ 0, %29 ]
  store i32 %31, ptr %8, align 4, !tbaa !7
  call void @llvm.lifetime.start.p0(i64 4, ptr %9) #4
  %32 = load ptr, ptr %3, align 8, !tbaa !3
  %33 = getelementptr inbounds nuw %struct.VP8TBuffer, ptr %32, i32 0, i32 4
  %34 = load i32, ptr %33, align 4, !tbaa !17
  store i32 %34, ptr %9, align 4, !tbaa !7
  call void @llvm.lifetime.start.p0(i64 8, ptr %10) #4
  %35 = load ptr, ptr %6, align 8, !tbaa !19
  %36 = getelementptr inbounds %struct.VP8Tokens, ptr %35, i64 1
  store ptr %36, ptr %10, align 8, !tbaa !31
  br label %37

37:                                               ; preds = %78, %30
  %38 = load i32, ptr %9, align 4, !tbaa !7
  %39 = add nsw i32 %38, -1
  store i32 %39, ptr %9, align 4, !tbaa !7
  %40 = load i32, ptr %8, align 4, !tbaa !7
  %41 = icmp sgt i32 %38, %40
  br i1 %41, label %42, label %79

42:                                               ; preds = %37
  call void @llvm.lifetime.start.p0(i64 2, ptr %11) #4
  %43 = load ptr, ptr %10, align 8, !tbaa !31
  %44 = load i32, ptr %9, align 4, !tbaa !7
  %45 = sext i32 %44 to i64
  %46 = getelementptr inbounds i16, ptr %43, i64 %45
  %47 = load i16, ptr %46, align 2, !tbaa !37
  store i16 %47, ptr %11, align 2, !tbaa !37
  call void @llvm.lifetime.start.p0(i64 4, ptr %12) #4
  %48 = load i16, ptr %11, align 2, !tbaa !37
  %49 = zext i16 %48 to i32
  %50 = and i32 %49, 32768
  store i32 %50, ptr %12, align 4, !tbaa !7
  %51 = load i16, ptr %11, align 2, !tbaa !37
  %52 = zext i16 %51 to i32
  %53 = and i32 %52, 16384
  %54 = icmp ne i32 %53, 0
  br i1 %54, label %55, label %65

55:                                               ; preds = %42
  %56 = load i32, ptr %12, align 4, !tbaa !7
  %57 = load i16, ptr %11, align 2, !tbaa !37
  %58 = zext i16 %57 to i32
  %59 = and i32 %58, 255
  %60 = trunc i32 %59 to i8
  %61 = call i32 @VP8BitCost(i32 noundef %56, i8 noundef zeroext %60)
  %62 = sext i32 %61 to i64
  %63 = load i64, ptr %5, align 8, !tbaa !47
  %64 = add i64 %63, %62
  store i64 %64, ptr %5, align 8, !tbaa !47
  br label %78

65:                                               ; preds = %42
  %66 = load i32, ptr %12, align 4, !tbaa !7
  %67 = load ptr, ptr %4, align 8, !tbaa !41
  %68 = load i16, ptr %11, align 2, !tbaa !37
  %69 = zext i16 %68 to i32
  %70 = and i32 %69, 16383
  %71 = zext i32 %70 to i64
  %72 = getelementptr inbounds nuw i8, ptr %67, i64 %71
  %73 = load i8, ptr %72, align 1, !tbaa !39
  %74 = call i32 @VP8BitCost(i32 noundef %66, i8 noundef zeroext %73)
  %75 = sext i32 %74 to i64
  %76 = load i64, ptr %5, align 8, !tbaa !47
  %77 = add i64 %76, %75
  store i64 %77, ptr %5, align 8, !tbaa !47
  br label %78

78:                                               ; preds = %65, %55
  call void @llvm.lifetime.end.p0(i64 4, ptr %12) #4
  call void @llvm.lifetime.end.p0(i64 2, ptr %11) #4
  br label %37, !llvm.loop !49

79:                                               ; preds = %37
  %80 = load ptr, ptr %7, align 8, !tbaa !19
  store ptr %80, ptr %6, align 8, !tbaa !19
  call void @llvm.lifetime.end.p0(i64 8, ptr %10) #4
  call void @llvm.lifetime.end.p0(i64 4, ptr %9) #4
  call void @llvm.lifetime.end.p0(i64 4, ptr %8) #4
  call void @llvm.lifetime.end.p0(i64 8, ptr %7) #4
  br label %16, !llvm.loop !50

81:                                               ; preds = %16
  %82 = load i64, ptr %5, align 8, !tbaa !47
  call void @llvm.lifetime.end.p0(i64 8, ptr %6) #4
  call void @llvm.lifetime.end.p0(i64 8, ptr %5) #4
  ret i64 %82
}