; Function Attrs: nofree norecurse nosync nounwind memory(read, inaccessiblemem: none) uwtable
define hidden i64 @VP8EstimateTokenSize(ptr noundef readonly captures(none) %0, ptr noundef readonly captures(none) %1) local_unnamed_addr #3 {
  %3 = load ptr, ptr %0, align 8, !tbaa !12
  %.not30 = icmp eq ptr %3, null
  br i1 %.not30, label %._crit_edge, label %.lr.ph33

.lr.ph33:                                         ; preds = %2
  %4 = getelementptr inbounds nuw i8, ptr %0, i64 24
  %5 = getelementptr inbounds nuw i8, ptr %0, i64 28
  %6 = load i32, ptr %5, align 4, !tbaa !15
  %7 = sext i32 %6 to i64
  br label %8

.loopexit:                                        ; preds = %32, %13
  %.1.lcssa = phi i64 [ %.032, %13 ], [ %.2, %32 ]
  br i1 %10, label %._crit_edge, label %8, !llvm.loop !39

8:                                                ; preds = %.lr.ph33, %.loopexit
  %.032 = phi i64 [ 0, %.lr.ph33 ], [ %.1.lcssa, %.loopexit ]
  %.02131 = phi ptr [ %3, %.lr.ph33 ], [ %9, %.loopexit ]
  %9 = load ptr, ptr %.02131, align 8, !tbaa !17
  %10 = icmp eq ptr %9, null
  br i1 %10, label %11, label %13

11:                                               ; preds = %8
  %12 = load i32, ptr %4, align 8, !tbaa !14
  br label %13

13:                                               ; preds = %8, %11
  %14 = phi i32 [ %12, %11 ], [ 0, %8 ]
  %15 = getelementptr inbounds nuw i8, ptr %.02131, i64 8
  %16 = icmp sgt i32 %6, %14
  br i1 %16, label %.lr.ph.preheader, label %.loopexit

.lr.ph.preheader:                                 ; preds = %13
  %17 = sext i32 %14 to i64
  br label %.lr.ph

.lr.ph:                                           ; preds = %.lr.ph.preheader, %32
  %indvars.iv = phi i64 [ %7, %.lr.ph.preheader ], [ %indvars.iv.next, %32 ]
  %.129 = phi i64 [ %.032, %.lr.ph.preheader ], [ %.2, %32 ]
  %indvars.iv.next = add nsw i64 %indvars.iv, -1
  %18 = getelementptr inbounds i16, ptr %15, i64 %indvars.iv.next
  %19 = load i16, ptr %18, align 2, !tbaa !31
  %20 = zext i16 %19 to i32
  %21 = and i32 %20, 16384
  %.not23 = icmp eq i32 %21, 0
  br i1 %.not23, label %26, label %22

22:                                               ; preds = %.lr.ph
  %23 = shl nuw i32 %20, 16
  %sext = ashr i32 %23, 31
  %24 = xor i32 %sext, %20
  %25 = and i32 %24, 255
  %.pn.i = zext nneg i32 %25 to i64
  br label %32

26:                                               ; preds = %.lr.ph
  %27 = and i32 %20, 16383
  %28 = zext nneg i32 %27 to i64
  %29 = getelementptr inbounds nuw i8, ptr %1, i64 %28
  %30 = load i8, ptr %29, align 1, !tbaa !34
  %.lobit = ashr i16 %19, 15
  %31 = trunc nsw i16 %.lobit to i8
  %.pn.in.i25 = xor i8 %30, %31
  %.pn.i26 = zext i8 %.pn.in.i25 to i64
  br label %32

32:                                               ; preds = %26, %22
  %.pn.i.pn = phi i64 [ %.pn.i, %22 ], [ %.pn.i26, %26 ]
  %.pn.in.in.in = getelementptr inbounds nuw [256 x i16], ptr @VP8EntropyCost, i64 0, i64 %.pn.i.pn
  %.pn.in.in = load i16, ptr %.pn.in.in.in, align 2, !tbaa !31
  %.pn = zext i16 %.pn.in.in to i64
  %.2 = add i64 %.129, %.pn
  %33 = icmp sgt i64 %indvars.iv.next, %17
  br i1 %33, label %.lr.ph, label %.loopexit, !llvm.loop !40

._crit_edge:                                      ; preds = %.loopexit, %2
  %.0.lcssa = phi i64 [ 0, %2 ], [ %.1.lcssa, %.loopexit ]
  ret i64 %.0.lcssa
}